target datalayout = "e-m:e-p270:32:32-p271:32:32-p272:64:64-i64:64-i128:128-f80:128-n8:16:32:64-S128"
target triple = "x86_64-pc-linux-gnu"

%struct.code = type { i8, i8, i16 }
%struct.z_stream_s = type { ptr, i32, i64, ptr, i32, i64, ptr, ptr, ptr, ptr, ptr, i32, i64, i64 }
%struct.inflate_state = type { i32, i32, i32, i32, i32, i32, i64, i64, ptr, i32, i32, i32, i32, ptr, i64, i32, i32, i32, i32, ptr, ptr, i32, i32, i32, i32, i32, i32, ptr, [320 x i16], [288 x i16], [1444 x %struct.code], i32, i32, i32 }

; Function Attrs: nounwind uwtable
define internal i32 @updatewindow(ptr noundef %0, i32 noundef %1) #0 {
  %3 = alloca i32, align 4
  %4 = alloca ptr, align 8
  %5 = alloca i32, align 4
  %6 = alloca ptr, align 8
  %7 = alloca i32, align 4
  %8 = alloca i32, align 4
  %9 = alloca i32, align 4
  store ptr %0, ptr %4, align 8, !tbaa !3
  store i32 %1, ptr %5, align 4, !tbaa !38
  call void @llvm.lifetime.start.p0(i64 8, ptr %6) #4
  call void @llvm.lifetime.start.p0(i64 4, ptr %7) #4
  call void @llvm.lifetime.start.p0(i64 4, ptr %8) #4
  %10 = load ptr, ptr %4, align 8, !tbaa !3
  %11 = getelementptr inbounds nuw %struct.z_stream_s, ptr %10, i32 0, i32 7
  %12 = load ptr, ptr %11, align 8, !tbaa !8
  store ptr %12, ptr %6, align 8, !tbaa !14
  %13 = load ptr, ptr %6, align 8, !tbaa !14
  %14 = getelementptr inbounds nuw %struct.inflate_state, ptr %13, i32 0, i32 13
  %15 = load ptr, ptr %14, align 8, !tbaa !39
  %16 = icmp eq ptr %15, null
  br i1 %16, label %17, label %37

17:                                               ; preds = %2
  %18 = load ptr, ptr %4, align 8, !tbaa !3
  %19 = getelementptr inbounds nuw %struct.z_stream_s, ptr %18, i32 0, i32 8
  %20 = load ptr, ptr %19, align 8, !tbaa !46
  %21 = load ptr, ptr %4, align 8, !tbaa !3
  %22 = getelementptr inbounds nuw %struct.z_stream_s, ptr %21, i32 0, i32 10
  %23 = load ptr, ptr %22, align 8, !tbaa !42
  %24 = load ptr, ptr %6, align 8, !tbaa !14
  %25 = getelementptr inbounds nuw %struct.inflate_state, ptr %24, i32 0, i32 9
  %26 = load i32, ptr %25, align 8, !tbaa !40
  %27 = shl i32 1, %26
  %28 = call ptr %20(ptr noundef %23, i32 noundef %27, i32 noundef 1)
  %29 = load ptr, ptr %6, align 8, !tbaa !14
  %30 = getelementptr inbounds nuw %struct.inflate_state, ptr %29, i32 0, i32 13
  store ptr %28, ptr %30, align 8, !tbaa !39
  %31 = load ptr, ptr %6, align 8, !tbaa !14
  %32 = getelementptr inbounds nuw %struct.inflate_state, ptr %31, i32 0, i32 13
  %33 = load ptr, ptr %32, align 8, !tbaa !39
  %34 = icmp eq ptr %33, null
  br i1 %34, label %35, label %36

35:                                               ; preds = %17
  store i32 1, ptr %3, align 4
  store i32 1, ptr %9, align 4
  br label %178

36:                                               ; preds = %17
  br label %37

37:                                               ; preds = %36, %2
  %38 = load ptr, ptr %6, align 8, !tbaa !14
  %39 = getelementptr inbounds nuw %struct.inflate_state, ptr %38, i32 0, i32 10
  %40 = load i32, ptr %39, align 4, !tbaa !28
  %41 = icmp eq i32 %40, 0
  br i1 %41, label %42, label %53

42:                                               ; preds = %37
  %43 = load ptr, ptr %6, align 8, !tbaa !14
  %44 = getelementptr inbounds nuw %struct.inflate_state, ptr %43, i32 0, i32 9
  %45 = load i32, ptr %44, align 8, !tbaa !40
  %46 = shl i32 1, %45
  %47 = load ptr, ptr %6, align 8, !tbaa !14
  %48 = getelementptr inbounds nuw %struct.inflate_state, ptr %47, i32 0, i32 10
  store i32 %46, ptr %48, align 4, !tbaa !28
  %49 = load ptr, ptr %6, align 8, !tbaa !14
  %50 = getelementptr inbounds nuw %struct.inflate_state, ptr %49, i32 0, i32 12
  store i32 0, ptr %50, align 4, !tbaa !30
  %51 = load ptr, ptr %6, align 8, !tbaa !14
  %52 = getelementptr inbounds nuw %struct.inflate_state, ptr %51, i32 0, i32 11
  store i32 0, ptr %52, align 8, !tbaa !29
  br label %53

53:                                               ; preds = %42, %37
  %54 = load i32, ptr %5, align 4, !tbaa !38
  %55 = load ptr, ptr %4, align 8, !tbaa !3
  %56 = getelementptr inbounds nuw %struct.z_stream_s, ptr %55, i32 0, i32 4
  %57 = load i32, ptr %56, align 8, !tbaa !50
  %58 = sub i32 %54, %57
  store i32 %58, ptr %7, align 4, !tbaa !38
  %59 = load i32, ptr %7, align 4, !tbaa !38
  %60 = load ptr, ptr %6, align 8, !tbaa !14
  %61 = getelementptr inbounds nuw %struct.inflate_state, ptr %60, i32 0, i32 10
  %62 = load i32, ptr %61, align 4, !tbaa !28
  %63 = icmp uge i32 %59, %62
  br i1 %63, label %64, label %88

64:                                               ; preds = %53
  %65 = load ptr, ptr %6, align 8, !tbaa !14
  %66 = getelementptr inbounds nuw %struct.inflate_state, ptr %65, i32 0, i32 13
  %67 = load ptr, ptr %66, align 8, !tbaa !39
  %68 = load ptr, ptr %4, align 8, !tbaa !3
  %69 = getelementptr inbounds nuw %struct.z_stream_s, ptr %68, i32 0, i32 3
  %70 = load ptr, ptr %69, align 8, !tbaa !47
  %71 = load ptr, ptr %6, align 8, !tbaa !14
  %72 = getelementptr inbounds nuw %struct.inflate_state, ptr %71, i32 0, i32 10
  %73 = load i32, ptr %72, align 4, !tbaa !28
  %74 = zext i32 %73 to i64
  %75 = sub i64 0, %74
  %76 = getelementptr inbounds i8, ptr %70, i64 %75
  %77 = load ptr, ptr %6, align 8, !tbaa !14
  %78 = getelementptr inbounds nuw %struct.inflate_state, ptr %77, i32 0, i32 10
  %79 = load i32, ptr %78, align 4, !tbaa !28
  %80 = zext i32 %79 to i64
  call void @llvm.memcpy.p0.p0.i64(ptr align 1 %67, ptr align 1 %76, i64 %80, i1 false)
  %81 = load ptr, ptr %6, align 8, !tbaa !14
  %82 = getelementptr inbounds nuw %struct.inflate_state, ptr %81, i32 0, i32 12
  store i32 0, ptr %82, align 4, !tbaa !30
  %83 = load ptr, ptr %6, align 8, !tbaa !14
  %84 = getelementptr inbounds nuw %struct.inflate_state, ptr %83, i32 0, i32 10
  %85 = load i32, ptr %84, align 4, !tbaa !28
  %86 = load ptr, ptr %6, align 8, !tbaa !14
  %87 = getelementptr inbounds nuw %struct.inflate_state, ptr %86, i32 0, i32 11
  store i32 %85, ptr %87, align 8, !tbaa !29
  br label %177

88:                                               ; preds = %53
  %89 = load ptr, ptr %6, align 8, !tbaa !14
  %90 = getelementptr inbounds nuw %struct.inflate_state, ptr %89, i32 0, i32 10
  %91 = load i32, ptr %90, align 4, !tbaa !28
  %92 = load ptr, ptr %6, align 8, !tbaa !14
  %93 = getelementptr inbounds nuw %struct.inflate_state, ptr %92, i32 0, i32 12
  %94 = load i32, ptr %93, align 4, !tbaa !30
  %95 = sub i32 %91, %94
  store i32 %95, ptr %8, align 4, !tbaa !38
  %96 = load i32, ptr %8, align 4, !tbaa !38
  %97 = load i32, ptr %7, align 4, !tbaa !38
  %98 = icmp ugt i32 %96, %97
  br i1 %98, label %99, label %101

99:                                               ; preds = %88
  %100 = load i32, ptr %7, align 4, !tbaa !38
  store i32 %100, ptr %8, align 4, !tbaa !38
  br label %101

101:                                              ; preds = %99, %88
  %102 = load ptr, ptr %6, align 8, !tbaa !14
  %103 = getelementptr inbounds nuw %struct.inflate_state, ptr %102, i32 0, i32 13
  %104 = load ptr, ptr %103, align 8, !tbaa !39
  %105 = load ptr, ptr %6, align 8, !tbaa !14
  %106 = getelementptr inbounds nuw %struct.inflate_state, ptr %105, i32 0, i32 12
  %107 = load i32, ptr %106, align 4, !tbaa !30
  %108 = zext i32 %107 to i64
  %109 = getelementptr inbounds nuw i8, ptr %104, i64 %108
  %110 = load ptr, ptr %4, align 8, !tbaa !3
  %111 = getelementptr inbounds nuw %struct.z_stream_s, ptr %110, i32 0, i32 3
  %112 = load ptr, ptr %111, align 8, !tbaa !47
  %113 = load i32, ptr %7, align 4, !tbaa !38
  %114 = zext i32 %113 to i64
  %115 = sub i64 0, %114
  %116 = getelementptr inbounds i8, ptr %112, i64 %115
  %117 = load i32, ptr %8, align 4, !tbaa !38
  %118 = zext i32 %117 to i64
  call void @llvm.memcpy.p0.p0.i64(ptr align 1 %109, ptr align 1 %116, i64 %118, i1 false)
  %119 = load i32, ptr %8, align 4, !tbaa !38
  %120 = load i32, ptr %7, align 4, !tbaa !38
  %121 = sub i32 %120, %119
  store i32 %121, ptr %7, align 4, !tbaa !38
  %122 = load i32, ptr %7, align 4, !tbaa !38
  %123 = icmp ne i32 %122, 0
  br i1 %123, label %124, label %145

124:                                              ; preds = %101
  %125 = load ptr, ptr %6, align 8, !tbaa !14
  %126 = getelementptr inbounds nuw %struct.inflate_state, ptr %125, i32 0, i32 13
  %127 = load ptr, ptr %126, align 8, !tbaa !39
  %128 = load ptr, ptr %4, align 8, !tbaa !3
  %129 = getelementptr inbounds nuw %struct.z_stream_s, ptr %128, i32 0, i32 3
  %130 = load ptr, ptr %129, align 8, !tbaa !47
  %131 = load i32, ptr %7, align 4, !tbaa !38
  %132 = zext i32 %131 to i64
  %133 = sub i64 0, %132
  %134 = getelementptr inbounds i8, ptr %130, i64 %133
  %135 = load i32, ptr %7, align 4, !tbaa !38
  %136 = zext i32 %135 to i64
  call void @llvm.memcpy.p0.p0.i64(ptr align 1 %127, ptr align 1 %134, i64 %136, i1 false)
  %137 = load i32, ptr %7, align 4, !tbaa !38
  %138 = load ptr, ptr %6, align 8, !tbaa !14
  %139 = getelementptr inbounds nuw %struct.inflate_state, ptr %138, i32 0, i32 12
  store i32 %137, ptr %139, align 4, !tbaa !30
  %140 = load ptr, ptr %6, align 8, !tbaa !14
  %141 = getelementptr inbounds nuw %struct.inflate_state, ptr %140, i32 0, i32 10
  %142 = load i32, ptr %141, align 4, !tbaa !28
  %143 = load ptr, ptr %6, align 8, !tbaa !14
  %144 = getelementptr inbounds nuw %struct.inflate_state, ptr %143, i32 0, i32 11
  store i32 %142, ptr %144, align 8, !tbaa !29
  br label %176

145:                                              ; preds = %101
  %146 = load i32, ptr %8, align 4, !tbaa !38
  %147 = load ptr, ptr %6, align 8, !tbaa !14
  %148 = getelementptr inbounds nuw %struct.inflate_state, ptr %147, i32 0, i32 12
  %149 = load i32, ptr %148, align 4, !tbaa !30
  %150 = add i32 %149, %146
  store i32 %150, ptr %148, align 4, !tbaa !30
  %151 = load ptr, ptr %6, align 8, !tbaa !14
  %152 = getelementptr inbounds nuw %struct.inflate_state, ptr %151, i32 0, i32 12
  %153 = load i32, ptr %152, align 4, !tbaa !30
  %154 = load ptr, ptr %6, align 8, !tbaa !14
  %155 = getelementptr inbounds nuw %struct.inflate_state, ptr %154, i32 0, i32 10
  %156 = load i32, ptr %155, align 4, !tbaa !28
  %157 = icmp eq i32 %153, %156
  br i1 %157, label %158, label %161

158:                                              ; preds = %145
  %159 = load ptr, ptr %6, align 8, !tbaa !14
  %160 = getelementptr inbounds nuw %struct.inflate_state, ptr %159, i32 0, i32 12
  store i32 0, ptr %160, align 4, !tbaa !30
  br label %161

161:                                              ; preds = %158, %145
  %162 = load ptr, ptr %6, align 8, !tbaa !14
  %163 = getelementptr inbounds nuw %struct.inflate_state, ptr %162, i32 0, i32 11
  %164 = load i32, ptr %163, align 8, !tbaa !29
  %165 = load ptr, ptr %6, align 8, !tbaa !14
  %166 = getelementptr inbounds nuw %struct.inflate_state, ptr %165, i32 0, i32 10
  %167 = load i32, ptr %166, align 4, !tbaa !28
  %168 = icmp ult i32 %164, %167
  br i1 %168, label %169, label %175

169:                                              ; preds = %161
  %170 = load i32, ptr %8, align 4, !tbaa !38
  %171 = load ptr, ptr %6, align 8, !tbaa !14
  %172 = getelementptr inbounds nuw %struct.inflate_state, ptr %171, i32 0, i32 11
  %173 = load i32, ptr %172, align 8, !tbaa !29
  %174 = add i32 %173, %170
  store i32 %174, ptr %172, align 8, !tbaa !29
  br label %175

175:                                              ; preds = %169, %161
  br label %176

176:                                              ; preds = %175, %124
  br label %177

177:                                              ; preds = %176, %64
  store i32 0, ptr %3, align 4
  store i32 1, ptr %9, align 4
  br label %178

178:                                              ; preds = %177, %35
  call void @llvm.lifetime.end.p0(i64 4, ptr %8) #4
  call void @llvm.lifetime.end.p0(i64 4, ptr %7) #4
  call void @llvm.lifetime.end.p0(i64 8, ptr %6) #4
  %179 = load i32, ptr %3, align 4
  ret i32 %179
}