; Function Attrs: nounwind uwtable
define internal fastcc range(i32 0, 2) i32 @updatewindow(ptr noundef nonnull readonly captures(none) %0, i32 noundef %1) unnamed_addr #2 {
  %3 = getelementptr inbounds nuw i8, ptr %0, i64 56
  %4 = load ptr, ptr %3, align 8, !tbaa !3
  %5 = getelementptr inbounds nuw i8, ptr %4, i64 64
  %6 = load ptr, ptr %5, align 8, !tbaa !32
  %7 = icmp eq ptr %6, null
  br i1 %7, label %8, label %18

8:                                                ; preds = %2
  %9 = getelementptr inbounds nuw i8, ptr %0, i64 64
  %10 = load ptr, ptr %9, align 8, !tbaa !39
  %11 = getelementptr inbounds nuw i8, ptr %0, i64 80
  %12 = load ptr, ptr %11, align 8, !tbaa !36
  %13 = getelementptr inbounds nuw i8, ptr %4, i64 48
  %14 = load i32, ptr %13, align 8, !tbaa !33
  %15 = shl nuw i32 1, %14
  %16 = tail call ptr %10(ptr noundef %12, i32 noundef %15, i32 noundef 1) #10
  store ptr %16, ptr %5, align 8, !tbaa !32
  %17 = icmp eq ptr %16, null
  br i1 %17, label %74, label %18

18:                                               ; preds = %8, %2
  %19 = phi ptr [ %16, %8 ], [ %6, %2 ]
  %20 = getelementptr inbounds nuw i8, ptr %4, i64 52
  %21 = load i32, ptr %20, align 4, !tbaa !22
  %22 = icmp eq i32 %21, 0
  br i1 %22, label %23, label %29

23:                                               ; preds = %18
  %24 = getelementptr inbounds nuw i8, ptr %4, i64 48
  %25 = load i32, ptr %24, align 8, !tbaa !33
  %26 = shl nuw i32 1, %25
  store i32 %26, ptr %20, align 4, !tbaa !22
  %27 = getelementptr inbounds nuw i8, ptr %4, i64 60
  store i32 0, ptr %27, align 4, !tbaa !24
  %28 = getelementptr inbounds nuw i8, ptr %4, i64 56
  store i32 0, ptr %28, align 8, !tbaa !23
  br label %29

29:                                               ; preds = %23, %18
  %30 = phi i32 [ %26, %23 ], [ %21, %18 ]
  %31 = getelementptr inbounds nuw i8, ptr %0, i64 32
  %32 = load i32, ptr %31, align 8, !tbaa !43
  %33 = sub i32 %1, %32
  %.not = icmp ult i32 %33, %30
  br i1 %.not, label %43, label %34

34:                                               ; preds = %29
  %35 = getelementptr inbounds nuw i8, ptr %0, i64 24
  %36 = load ptr, ptr %35, align 8, !tbaa !40
  %37 = zext i32 %30 to i64
  %38 = sub nsw i64 0, %37
  %39 = getelementptr inbounds i8, ptr %36, i64 %38
  tail call void @llvm.memcpy.p0.p0.i64(ptr noundef nonnull align 1 dereferenceable(1) %19, ptr noundef nonnull align 1 dereferenceable(1) %39, i64 %37, i1 false)
  %40 = getelementptr inbounds nuw i8, ptr %4, i64 60
  store i32 0, ptr %40, align 4, !tbaa !24
  %41 = load i32, ptr %20, align 4, !tbaa !22
  %42 = getelementptr inbounds nuw i8, ptr %4, i64 56
  store i32 %41, ptr %42, align 8, !tbaa !23
  br label %74

43:                                               ; preds = %29
  %44 = getelementptr inbounds nuw i8, ptr %4, i64 60
  %45 = load i32, ptr %44, align 4, !tbaa !24
  %46 = sub i32 %30, %45
  %spec.select = tail call i32 @llvm.umin.i32(i32 %46, i32 %33)
  %47 = zext i32 %45 to i64
  %48 = getelementptr inbounds nuw i8, ptr %19, i64 %47
  %49 = getelementptr inbounds nuw i8, ptr %0, i64 24
  %50 = load ptr, ptr %49, align 8, !tbaa !40
  %51 = zext i32 %33 to i64
  %52 = sub nsw i64 0, %51
  %53 = getelementptr inbounds i8, ptr %50, i64 %52
  %54 = zext i32 %spec.select to i64
  tail call void @llvm.memcpy.p0.p0.i64(ptr nonnull align 1 %48, ptr align 1 %53, i64 %54, i1 false)
  %.not59.not = icmp ugt i32 %33, %46
  br i1 %.not59.not, label %55, label %64

55:                                               ; preds = %43
  %56 = sub i32 %33, %spec.select
  %57 = load ptr, ptr %5, align 8, !tbaa !32
  %58 = load ptr, ptr %49, align 8, !tbaa !40
  %59 = zext i32 %56 to i64
  %60 = sub nsw i64 0, %59
  %61 = getelementptr inbounds i8, ptr %58, i64 %60
  tail call void @llvm.memcpy.p0.p0.i64(ptr align 1 %57, ptr align 1 %61, i64 %59, i1 false)
  store i32 %56, ptr %44, align 4, !tbaa !24
  %62 = load i32, ptr %20, align 4, !tbaa !22
  %63 = getelementptr inbounds nuw i8, ptr %4, i64 56
  store i32 %62, ptr %63, align 8, !tbaa !23
  br label %74

64:                                               ; preds = %43
  %65 = load i32, ptr %44, align 4, !tbaa !24
  %66 = add i32 %65, %spec.select
  %67 = load i32, ptr %20, align 4, !tbaa !22
  %68 = icmp eq i32 %66, %67
  %spec.store.select = select i1 %68, i32 0, i32 %66
  store i32 %spec.store.select, ptr %44, align 4
  %69 = getelementptr inbounds nuw i8, ptr %4, i64 56
  %70 = load i32, ptr %69, align 8, !tbaa !23
  %71 = icmp ult i32 %70, %67
  br i1 %71, label %72, label %74

72:                                               ; preds = %64
  %73 = add i32 %70, %spec.select
  store i32 %73, ptr %69, align 8, !tbaa !23
  br label %74

74:                                               ; preds = %34, %64, %72, %55, %8
  %.053 = phi i32 [ 1, %8 ], [ 0, %55 ], [ 0, %72 ], [ 0, %64 ], [ 0, %34 ]
  ret i32 %.053
}